(dp1
S'output'
p2
S"<type 'exceptions.NameError'> name 'records' is not defined"
p3
sS'layer'
p4
S'/Users/alissawoo/Desktop/spring2018/cmps183/web2py/applications/ravexchange/views/default/buy.html'
p5
sS'code'
p6
S'response.write(\'<!DOCTYPE html>\\n<!--[if (gt IE 9)|!(IE)]><!--> <html class="no-js" lang="\', escape=False)\nresponse.write(T.accepted_language or \'en\')\nresponse.write(\'"> <!--<![endif]-->\\n  <head>\\n    <meta charset="utf-8">\\n    <!-- www.phpied.com/conditional-comments-block-downloads/ -->\\n    <!-- Always force latest IE rendering engine\\n         (even in intranet) & Chrome Frame\\n         Remove this if you use the .htaccess -->\\n    <meta http-equiv="X-UA-Compatible" content="IE=edge\', escape=False)\nresponse.write(not request.is_local and \',chrome=1\' or \'\')\nresponse.write(\'">\\n    <!--  Mobile Viewport Fix\\n          j.mp/mobileviewport & davidbcalhoun.com/2010/viewport-metatag\\n          device-width: Occupy full width of the screen in its current orientation\\n          initial-scale = 1.0 retains dimensions instead of zooming out if page height > device height\\n          user-scalable = yes allows the user to zoom in -->\\n    <meta name="viewport" content="width=device-width, initial-scale=1.0">\\n    <title>\', escape=False)\nresponse.write(response.title or request.application)\nresponse.write(\'</title>\\n    <!-- http://dev.w3.org/html5/markup/meta.name.html -->\\n    <meta name="application-name" content="\', escape=False)\nresponse.write(request.application)\nresponse.write(\'">\\n    <!-- Speaking of Google, don\\\'t forget to set your site up:\\n         http://google.com/webmasters -->\\n    <meta name="google-site-verification" content="">\\n    <!-- include stylesheets -->\\n    <link rel="stylesheet" href="\', escape=False)\nresponse.write(URL(\'static\',\'css/bootstrap.min.css\'))\nresponse.write(\'"/>\\n    <link rel="stylesheet" href="\', escape=False)\nresponse.write(URL(\'static\',\'css/web2py-bootstrap4.css\'))\nresponse.write(\'"/>\\n    <link rel="shortcut icon" href="\', escape=False)\nresponse.write(URL(\'static\',\'images/favicon.ico\'))\nresponse.write(\'" type="image/x-icon">\\n    <link rel="apple-touch-icon" href="\', escape=False)\nresponse.write(URL(\'static\',\'images/favicon.png\'))\nresponse.write(\'">\\n    <!-- All JavaScript at the bottom, except for Modernizr which enables\\n         HTML5 elements & feature detects -->\\n    <script src="\', escape=False)\nresponse.write(URL(\'static\',\'js/modernizr-2.8.3.min.js\'))\nresponse.write(\'"></script>\\n    <!-- Favicons -->\\n    \', escape=False)\nresponse.write(\'<script type="text/javascript"><!--\\n    // These variables are used by the web2py_ajax_init function in web2py_ajax.js (which is loaded below).\\n    \', escape=False)\nresponse.write(ASSIGNJS(\nw2p_ajax_confirm_message = T(\'Are you sure you want to delete this object?\'),\nw2p_ajax_disable_with_message = T(\'Working...\'),\nw2p_ajax_date_format = T(\'%Y-%m-%d\'),\nw2p_ajax_datetime_format = T(\'%Y-%m-%d %H:%M:%S\'),\najax_error_500 = T.M(\'An error occured, please [[reload %s]] the page\') % URL(args=request.args, vars=request.get_vars)\n))\nresponse.write(\'\\n    //--></script>\\n\', escape=False)\nresponse.files.insert(0,URL(\'static\',\'js/jquery.js\'))\nresponse.files.insert(1,URL(\'static\',\'css/calendar.css\'))\nresponse.files.insert(2,URL(\'static\',\'js/calendar.js\'))\nresponse.files.insert(3,URL(\'static\',\'js/web2py.js\'))\nresponse.include_meta()\nresponse.include_files()\nresponse.write(\'\\n\', escape=False)\nresponse.write(\' <!-- this includes jquery.js, calendar.js/.css and web2py.js -->\\n    \', escape=False)\nresponse.write(\'\\n  </head>\\n  <body>\\n    <div class="w2p_flash alert alert-dismissable">\', escape=False)\nresponse.write(response.flash or \'\')\nresponse.write(\'</div>\\n    <!-- Navbar ======================================= -->\\n    <nav class="navbar navbar-toggleable-md navbar-light bg-faded">\\n      <button class="navbar-toggler navbar-toggler-right" type="button" data-toggle="collapse" data-target="#navbarNavDropdown" aria-controls="navbarNavDropdown" aria-expanded="false" aria-label="Toggle navigation">\\n        <span class="navbar-toggler-icon"></span>\\n      </button>\\n      <a class="navbar-brand" href="http://web2py.com">web2py</a>\\n      <div class="collapse navbar-collapse">\\n        <ul class="navbar-nav">\\n          \', escape=False)\nfor _item in response.menu or []:\n    response.write(\'\\n          \', escape=False)\n    if len(_item)<4 or not _item[3]:\n        response.write(\'\\n          <li class="nav-item \', escape=False)\n        if _item[1]:\n            response.write(\'active\', escape=False)\n            pass\n        response.write(\'">\\n            <a class="nav-link" href="\', escape=False)\n        response.write(_item[2])\n        response.write(\'">\', escape=False)\n        response.write(_item[0])\n        response.write(\'</a>\\n          </li>\\n          \', escape=False)\n    else:\n        response.write(\'\\n          <li class="nav-item dropdown">\\n            <a class="nav-link dropdown-toggle" href="\', escape=False)\n        response.write(_item[2])\n        response.write(\'" data-toggle="dropdown" aria-haspopup="true" aria-expanded="false">\', escape=False)\n        response.write(_item[0])\n        response.write(\'</a>\\n            <div class="dropdown-menu">\\n              \', escape=False)\n        for _subitem in _item[3]:\n            response.write(\'\\n              <a class="dropdown-item" href="\', escape=False)\n            response.write(_subitem[2])\n            response.write(\'">\', escape=False)\n            response.write(_subitem[0])\n            response.write(\'</a>\\n              \', escape=False)\n            pass\n        response.write(\'\\n            </div>\\n          </li>\\n          \', escape=False)\n        pass\n    response.write(\'\\n          \', escape=False)\n    pass\nresponse.write(\'          \\n        </ul>\\n        <form class="form-inline my-2 my-lg-0">\\n          <input class="form-control mr-sm-2" type="text" placeholder="Search">\\n        </form>      \\n        \', escape=False)\nif \'auth\' in globals():\n    response.write(\'\\n        <ul class="navbar-nav navbar-right">\\n          <li class="nav-item dropdown">\\n            <a class="nav-link dropdown-toggle" href="#" data-toggle="dropdown" aria-haspopup="true" aria-expanded="false">\\n              \', escape=False)\n    if auth.user:\n        response.write(auth.user.first_name)\n    else:\n        response.write(\'LOGIN\', escape=False)\n        pass\n    response.write(\'\\n            </a>\\n            <div class="dropdown-menu">\\n              \', escape=False)\n    if auth.user:\n        response.write(\'\\n              <a class="dropdown-item" href="\', escape=False)\n        response.write(URL(\'default\',\'user/profile\'))\n        response.write(\'">\', escape=False)\n        response.write(T(\'Profile\'))\n        response.write(\'</a>\\n              <a class="dropdown-item" href="\', escape=False)\n        response.write(URL(\'default\',\'user/change_password\'))\n        response.write(\'">\', escape=False)\n        response.write(T(\'Change Password\'))\n        response.write(\'</a>\\n              <a class="dropdown-item" href="\', escape=False)\n        response.write(URL(\'default\',\'user/logout\'))\n        response.write(\'">\', escape=False)\n        response.write(T(\'Logout\'))\n        response.write(\'</a>\\n              \', escape=False)\n    else:\n        response.write(\'\\n              <a class="dropdown-item" href="\', escape=False)\n        response.write(URL(\'default\',\'user/login\'))\n        response.write(\'">\', escape=False)\n        response.write(T(\'Login\'))\n        response.write(\'</a>\\n              <a class="dropdown-item" href="\', escape=False)\n        response.write(URL(\'default\',\'user/register\'))\n        response.write(\'">\', escape=False)\n        response.write(T(\'Sign up\'))\n        response.write(\'</a>\\n              <a class="dropdown-item" href="\', escape=False)\n        response.write(URL(\'default\',\'user/request_password\'))\n        response.write(\'">\', escape=False)\n        response.write(T(\'Lost Password\'))\n        response.write(\'</a>\\n              \', escape=False)\n        pass\n    response.write(\'\\n            </div>\\n          </li>\\n        </ul>        \\n        \', escape=False)\n    pass\nresponse.write(\'\\n      </div>\\n    </nav>\\n\\n    <!-- Masthead ===================================== -->    \\n    \', escape=False)\nresponse.write(\'\\n    \', escape=False)\nresponse.write(\'\\n    <!-- Main ========================================= -->\\n    <!-- Begin page content -->\\n    <div class="container-fluid main-container">\\n      <div class="col-md-12">\\n        \', escape=False)\nresponse.write(\'\\n        \', escape=False)\nresponse.write(\'\\n\', escape=False)\nresponse.write(records)\nresponse.write(\'\\n        \', escape=False)\nresponse.write(\'\\n        \', escape=False)\nresponse.write(response.toolbar() if configuration.get(\'app.toolbar\') else \'\')\nresponse.write(\'\\n      </div>\\n    </div>\\n\\n    \', escape=False)\nresponse.write(\' <!-- this is default footer -->      \\n    <footer class="footer">\\n      <div class="container-fluid">\\n        <div class="copyright pull-left">\', escape=False)\nresponse.write(T(\'Copyright\'))\nresponse.write(\' &#169; \', escape=False)\nresponse.write(request.now.year)\nresponse.write(\'</div>\\n          <div id="poweredBy" class="pull-right">\\n            \', escape=False)\nresponse.write(T(\'Powered by\'))\nresponse.write(\'\\n            <a href="http://www.web2py.com/">web2py</a>\\n          </div>\\n      </div>\\n    </footer>\\n    \', escape=False)\nresponse.write(\'\\n    <!-- The javascript =============================== -->\\n    <script src="\', escape=False)\nresponse.write(URL(\'static\',\'js/bootstrap.min.js\'))\nresponse.write(\'"></script>\\n    <script src="\', escape=False)\nresponse.write(URL(\'static\',\'js/web2py-bootstrap4.js\'))\nresponse.write(\'"></script>\\n    \', escape=False)\nresponse.write(\'\\n    \', escape=False)\nif response.google_analytics_id:\n    response.write(\'\\n    <!-- Analytics ==================================== -->\\n    <script src="\', escape=False)\n    response.write(URL(\'static\',\'js/analytics.min.js\'))\n    response.write(\'"></script>\\n    <script type="text/javascript">\\n      analytics.initialize({\\n      \\\'Google Analytics\\\':{trackingId:\\\'\', escape=False)\n    response.write(response.google_analytics_id)\n    response.write("\'}\\n      });\\n    </script>\\n    ", escape=False)\n    pass\nresponse.write(\'\\n    <!-- Share ============================y============ -->\\n    <script src="\', escape=False)\nresponse.write(URL(\'static\',\'js/share.js\',vars=dict(static=URL(\'static\',\'images\'))))\nresponse.write(\'"></script>\\n  </body>\\n</html>\\n\', escape=False)'
p7
sS'snapshot'
p8
(dp9
S'exception'
p10
(dp11
S'__getslice__'
p12
S"<method-wrapper '__getslice__' of exceptions.NameError object>"
p13
sS'__str__'
p14
S"<method-wrapper '__str__' of exceptions.NameError object>"
p15
sS'__reduce__'
p16
S'<built-in method __reduce__ of exceptions.NameError object>'
p17
sS'__dict__'
p18
S'{}'
p19
sS'message'
p20
S'"name \'records\' is not defined"'
p21
sS'__sizeof__'
p22
S'<built-in method __sizeof__ of exceptions.NameError object>'
p23
sS'__init__'
p24
S"<method-wrapper '__init__' of exceptions.NameError object>"
p25
sS'__setattr__'
p26
S"<method-wrapper '__setattr__' of exceptions.NameError object>"
p27
sS'__reduce_ex__'
p28
S'<built-in method __reduce_ex__ of exceptions.NameError object>'
p29
sS'__new__'
p30
S'<built-in method __new__ of type object>'
p31
sS'__format__'
p32
S'<built-in method __format__ of exceptions.NameError object>'
p33
sS'__class__'
p34
S"<type 'exceptions.NameError'>"
p35
sS'__doc__'
p36
S"'Name not found globally.'"
p37
sS'__getitem__'
p38
S"<method-wrapper '__getitem__' of exceptions.NameError object>"
p39
sS'__setstate__'
p40
S'<built-in method __setstate__ of exceptions.NameError object>'
p41
sS'__getattribute__'
p42
S"<method-wrapper '__getattribute__' of exceptions.NameError object>"
p43
sS'args'
p44
S'("name \'records\' is not defined",)'
p45
sS'__subclasshook__'
p46
S'<built-in method __subclasshook__ of type object>'
p47
sS'__unicode__'
p48
S'<built-in method __unicode__ of exceptions.NameError object>'
p49
sS'__delattr__'
p50
S"<method-wrapper '__delattr__' of exceptions.NameError object>"
p51
sS'__repr__'
p52
S"<method-wrapper '__repr__' of exceptions.NameError object>"
p53
sS'__hash__'
p54
S"<method-wrapper '__hash__' of exceptions.NameError object>"
p55
ssS'evalue'
p56
S"name 'records' is not defined"
p57
sS'request'
p58
cgluon.html
XML_unpickle
p59
(S'skl\x00\x00<div><table><tr><td style="font-weight:bold;vertical-align:top;">ajax</td><td style="vertical-align:top;">:</td><td><div>False</div></td></tr><tr><td style="font-weight:bold;vertical-align:top;">application</td><td style="vertical-align:top;">:</td><td><div>ravexchange</div></td></tr><tr><td style="font-weight:bold;vertical-align:top;">args</td><td style="vertical-align:top;">:</td><td><div><table></table></div></td></tr><tr><td style="font-weight:bold;vertical-align:top;">cid</td><td style="vertical-align:top;">:</td><td><div>None</div></td></tr><tr><td style="font-weight:bold;vertical-align:top;">client</td><td style="vertical-align:top;">:</td><td><div>127.0.0.1</div></td></tr><tr><td style="font-weight:bold;vertical-align:top;">controller</td><td style="vertical-align:top;">:</td><td><div>default</div></td></tr><tr><td style="font-weight:bold;vertical-align:top;">cookies</td><td style="vertical-align:top;">:</td><td><div><table><tr><td style="font-weight:bold;vertical-align:top;">session_id_admin</td><td style="vertical-align:top;">:</td><td><div>127.0.0.1-a3f1309e-19ff-4e55-8437-d7aee1d2831f<table><tr><td style="font-weight:bold;vertical-align:top;">comment</td><td style="vertical-align:top;">:</td><td><div></div></td></tr><tr><td style="font-weight:bold;vertical-align:top;">domain</td><td style="vertical-align:top;">:</td><td><div></div></td></tr><tr><td style="font-weight:bold;vertical-align:top;">expires</td><td style="vertical-align:top;">:</td><td><div></div></td></tr><tr><td style="font-weight:bold;vertical-align:top;">httponly</td><td style="vertical-align:top;">:</td><td><div></div></td></tr><tr><td style="font-weight:bold;vertical-align:top;">max-age</td><td style="vertical-align:top;">:</td><td><div></div></td></tr><tr><td style="font-weight:bold;vertical-align:top;">path</td><td style="vertical-align:top;">:</td><td><div></div></td></tr><tr><td style="font-weight:bold;vertical-align:top;">secure</td><td style="vertical-align:top;">:</td><td><div></div></td></tr><tr><td style="font-weight:bold;vertical-align:top;">version</td><td style="vertical-align:top;">:</td><td><div></div></td></tr></table></div></td></tr><tr><td style="font-weight:bold;vertical-align:top;">session_id_ravebay</td><td style="vertical-align:top;">:</td><td><div>127.0.0.1-315e4555-ebd2-4377-afa7-6dac381cf9aa<table><tr><td style="font-weight:bold;vertical-align:top;">comment</td><td style="vertical-align:top;">:</td><td><div></div></td></tr><tr><td style="font-weight:bold;vertical-align:top;">domain</td><td style="vertical-align:top;">:</td><td><div></div></td></tr><tr><td style="font-weight:bold;vertical-align:top;">expires</td><td style="vertical-align:top;">:</td><td><div></div></td></tr><tr><td style="font-weight:bold;vertical-align:top;">httponly</td><td style="vertical-align:top;">:</td><td><div></div></td></tr><tr><td style="font-weight:bold;vertical-align:top;">max-age</td><td style="vertical-align:top;">:</td><td><div></div></td></tr><tr><td style="font-weight:bold;vertical-align:top;">path</td><td style="vertical-align:top;">:</td><td><div></div></td></tr><tr><td style="font-weight:bold;vertical-align:top;">secure</td><td style="vertical-align:top;">:</td><td><div></div></td></tr><tr><td style="font-weight:bold;vertical-align:top;">version</td><td style="vertical-align:top;">:</td><td><div></div></td></tr></table></div></td></tr><tr><td style="font-weight:bold;vertical-align:top;">session_id_ravexchange</td><td style="vertical-align:top;">:</td><td><div>127.0.0.1-bfc6b5f7-f2ef-45e5-901c-45d3e24ea551<table><tr><td style="font-weight:bold;vertical-align:top;">comment</td><td style="vertical-align:top;">:</td><td><div></div></td></tr><tr><td style="font-weight:bold;vertical-align:top;">domain</td><td style="vertical-align:top;">:</td><td><div></div></td></tr><tr><td style="font-weight:bold;vertical-align:top;">expires</td><td style="vertical-align:top;">:</td><td><div></div></td></tr><tr><td style="font-weight:bold;vertical-align:top;">httponly</td><td style="vertical-align:top;">:</td><td><div></div></td></tr><tr><td style="font-weight:bold;vertical-align:top;">max-age</td><td style="vertical-align:top;">:</td><td><div></div></td></tr><tr><td style="font-weight:bold;vertical-align:top;">path</td><td style="vertical-align:top;">:</td><td><div></div></td></tr><tr><td style="font-weight:bold;vertical-align:top;">secure</td><td style="vertical-align:top;">:</td><td><div></div></td></tr><tr><td style="font-weight:bold;vertical-align:top;">version</td><td style="vertical-align:top;">:</td><td><div></div></td></tr></table></div></td></tr><tr><td style="font-weight:bold;vertical-align:top;">session_id_start</td><td style="vertical-align:top;">:</td><td><div>23:342defde-482e-4a05-8378-b1ac20408c58<table><tr><td style="font-weight:bold;vertical-align:top;">comment</td><td style="vertical-align:top;">:</td><td><div></div></td></tr><tr><td style="font-weight:bold;vertical-align:top;">domain</td><td style="vertical-align:top;">:</td><td><div></div></td></tr><tr><td style="font-weight:bold;vertical-align:top;">expires</td><td style="vertical-align:top;">:</td><td><div></div></td></tr><tr><td style="font-weight:bold;vertical-align:top;">httponly</td><td style="vertical-align:top;">:</td><td><div></div></td></tr><tr><td style="font-weight:bold;vertical-align:top;">max-age</td><td style="vertical-align:top;">:</td><td><div></div></td></tr><tr><td style="font-weight:bold;vertical-align:top;">path</td><td style="vertical-align:top;">:</td><td><div></div></td></tr><tr><td style="font-weight:bold;vertical-align:top;">secure</td><td style="vertical-align:top;">:</td><td><div></div></td></tr><tr><td style="font-weight:bold;vertical-align:top;">version</td><td style="vertical-align:top;">:</td><td><div></div></td></tr></table></div></td></tr><tr><td style="font-weight:bold;vertical-align:top;">session_id_welcome</td><td style="vertical-align:top;">:</td><td><div>127.0.0.1-1947729d-beae-4290-b9ee-26a2ad99ad40<table><tr><td style="font-weight:bold;vertical-align:top;">comment</td><td style="vertical-align:top;">:</td><td><div></div></td></tr><tr><td style="font-weight:bold;vertical-align:top;">domain</td><td style="vertical-align:top;">:</td><td><div></div></td></tr><tr><td style="font-weight:bold;vertical-align:top;">expires</td><td style="vertical-align:top;">:</td><td><div></div></td></tr><tr><td style="font-weight:bold;vertical-align:top;">httponly</td><td style="vertical-align:top;">:</td><td><div></div></td></tr><tr><td style="font-weight:bold;vertical-align:top;">max-age</td><td style="vertical-align:top;">:</td><td><div></div></td></tr><tr><td style="font-weight:bold;vertical-align:top;">path</td><td style="vertical-align:top;">:</td><td><div></div></td></tr><tr><td style="font-weight:bold;vertical-align:top;">secure</td><td style="vertical-align:top;">:</td><td><div></div></td></tr><tr><td style="font-weight:bold;vertical-align:top;">version</td><td style="vertical-align:top;">:</td><td><div></div></td></tr></table></div></td></tr></table></div></td></tr><tr><td style="font-weight:bold;vertical-align:top;">env</td><td style="vertical-align:top;">:</td><td><div><table><tr><td style="font-weight:bold;vertical-align:top;">HTTP_ACCEPT</td><td style="vertical-align:top;">:</td><td><div>text/html,application/xhtml+xml,application/xml;q=0.9,image/webp,image/apng,*/*;q=0.8</div></td></tr><tr><td style="font-weight:bold;vertical-align:top;">HTTP_ACCEPT_ENCODING</td><td style="vertical-align:top;">:</td><td><div>gzip, deflate, br</div></td></tr><tr><td style="font-weight:bold;vertical-align:top;">HTTP_ACCEPT_LANGUAGE</td><td style="vertical-align:top;">:</td><td><div>en-US,en;q=0.9</div></td></tr><tr><td style="font-weight:bold;vertical-align:top;">HTTP_CACHE_CONTROL</td><td style="vertical-align:top;">:</td><td><div>max-age=0</div></td></tr><tr><td style="font-weight:bold;vertical-align:top;">HTTP_CONNECTION</td><td style="vertical-align:top;">:</td><td><div>keep-alive</div></td></tr><tr><td style="font-weight:bold;vertical-align:top;">HTTP_COOKIE</td><td style="vertical-align:top;">:</td><td><div>session_id_admin=127.0.0.1-a3f1309e-19ff-4e55-8437-d7aee1d2831f; session_id_start=&quot;23:342defde-482e-4a05-8378-b1ac20408c58&quot;; session_id_ravebay=127.0.0.1-315e4555-ebd2-4377-afa7-6dac381cf9aa; session_id_welcome=127.0.0.1-1947729d-beae-4290-b9ee-26a2ad99ad40; session_id_ravexchange=127.0.0.1-bfc6b5f7-f2ef-45e5-901c-45d3e24ea551</div></td></tr><tr><td style="font-weight:bold;vertical-align:top;">HTTP_HOST</td><td style="vertical-align:top;">:</td><td><div>127.0.0.1:8000</div></td></tr><tr><td style="font-weight:bold;vertical-align:top;">HTTP_REFERER</td><td style="vertical-align:top;">:</td><td><div>http://127.0.0.1:8000/ravexchange/default/sell</div></td></tr><tr><td style="font-weight:bold;vertical-align:top;">HTTP_UPGRADE_INSECURE_REQUESTS</td><td style="vertical-align:top;">:</td><td><div>1</div></td></tr><tr><td style="font-weight:bold;vertical-align:top;">HTTP_USER_AGENT</td><td style="vertical-align:top;">:</td><td><div>Mozilla/5.0 (Macintosh; Intel Mac OS X 10_12_6) AppleWebKit/537.36 (KHTML, like Gecko) Chrome/66.0.3359.181 Safari/537.36</div></td></tr><tr><td style="font-weight:bold;vertical-align:top;">PATH_INFO</td><td style="vertical-align:top;">:</td><td><div>/ravexchange/default/buy</div></td></tr><tr><td style="font-weight:bold;vertical-align:top;">QUERY_STRING</td><td style="vertical-align:top;">:</td><td><div></div></td></tr><tr><td style="font-weight:bold;vertical-align:top;">REMOTE_ADDR</td><td style="vertical-align:top;">:</td><td><div>127.0.0.1</div></td></tr><tr><td style="font-weight:bold;vertical-align:top;">REMOTE_PORT</td><td style="vertical-align:top;">:</td><td><div>58449</div></td></tr><tr><td style="font-weight:bold;vertical-align:top;">REQUEST_METHOD</td><td style="vertical-align:top;">:</td><td><div>GET</div></td></tr><tr><td style="font-weight:bold;vertical-align:top;">SCRIPT_NAME</td><td style="vertical-align:top;">:</td><td><div></div></td></tr><tr><td style="font-weight:bold;vertical-align:top;">SERVER_NAME</td><td style="vertical-align:top;">:</td><td><div>eduroam-169-233-201-131.ucsc.edu</div></td></tr><tr><td style="font-weight:bold;vertical-align:top;">SERVER_PORT</td><td style="vertical-align:top;">:</td><td><div>8000</div></td></tr><tr><td style="font-weight:bold;vertical-align:top;">SERVER_PROTOCOL</td><td style="vertical-align:top;">:</td><td><div>HTTP/1.1</div></td></tr><tr><td style="font-weight:bold;vertical-align:top;">SERVER_SOFTWARE</td><td style="vertical-align:top;">:</td><td><div>Rocket 1.2.6</div></td></tr><tr><td style="font-weight:bold;vertical-align:top;">app_folders</td><td style="vertical-align:top;">:</td><td><div>set([&#x27;/Users/alissawoo/Desktop/spring2018/cmps183/web2py/applications/ravExchange/&#x27;, &#x27;/Users/alissawoo/Desktop/spring2018/cmps183/web2py/applications/admin/&#x27;, &#x27;/Users/alissawoo/Desktop/spring2018/cmps183/web2py/applications/raveBay/&#x27;, &#x27;/Users/alissawoo/Desktop/spring2018/cmps183/web2py/applications/start/&#x27;, &#x27;/Users/alissawoo/Desktop/spring2018/cmps183/web2py/applications/ravexchange/&#x27;, &#x27;/Users/alissawoo/Desktop/spring2018/cmps183/web2py/applications/welcome/&#x27;])</div></td></tr><tr><td style="font-weight:bold;vertical-align:top;">applications_parent</td><td style="vertical-align:top;">:</td><td><div>/Users/alissawoo/Desktop/spring2018/cmps183/web2py</div></td></tr><tr><td style="font-weight:bold;vertical-align:top;">cmd_args</td><td style="vertical-align:top;">:</td><td><div><table></table></div></td></tr><tr><td style="font-weight:bold;vertical-align:top;">cmd_options</td><td style="vertical-align:top;">:</td><td><div>&lt;Values at 0x10acb0758: {&#x27;verbose&#x27;: False, &#x27;ip&#x27;: &#x27;127.0.0.1&#x27;, &#x27;debuglevel&#x27;: 30, &#x27;with_scheduler&#x27;: False, &#x27;shutdown_timeout&#x27;: 5, &#x27;taskbar&#x27;: False, &#x27;with_coverage&#x27;: False, &#x27;pid_filename&#x27;: &#x27;httpserver.pid&#x27;, &#x27;maxthreads&#x27;: None, &#x27;softcron&#x27;: False, &#x27;server_name&#x27;: &#x27;eduroam-169-233-201-131.ucsc.edu&#x27;, &#x27;bpython&#x27;: False, &#x27;nogui&#x27;: False, &#x27;port&#x27;: 8000, &#x27;print_errors&#x27;: True, &#x27;extcron&#x27;: False, &#x27;runcron&#x27;: False, &#x27;run_system_tests&#x27;: False, &#x27;test&#x27;: None, &#x27;folder&#x27;: &#x27;/Users/alissawoo/Desktop/spring2018/cmps183/web2py&#x27;, &#x27;config&#x27;: &#x27;&#x27;, &#x27;minthreads&#x27;: None, &#x27;shell&#x27;: None, &#x27;run&#x27;: &#x27;&#x27;, &#x27;log_filename&#x27;: &#x27;httpserver.log&#x27;, &#x27;profiler_dir&#x27;: None, &#x27;args&#x27;: [&#x27;&#x27;], &#x27;socket_timeout&#x27;: 5, &#x27;ssl_ca_certificate&#x27;: None, &#x27;scheduler&#x27;: None, &#x27;interfaces&#x27;: None, &#x27;ssl_private_key&#x27;: &#x27;&#x27;, &#x27;gae&#x27;: None, &#x27;password&#x27;: &#x27;******&#x27;, &#x27;request_queue_size&#x27;: 5, &#x27;ssl_certificate&#x27;: &#x27;&#x27;, &#x27;cronjob&#x27;: False, &#x27;numthreads&#x27;: None, &#x27;quiet&#x27;: False, &#x27;import_models&#x27;: False, &#x27;timeout&#x27;: 10, &#x27;plain&#x27;: False, &#x27;nobanner&#x27;: False}&gt;</div></td></tr><tr><td style="font-weight:bold;vertical-align:top;">db_sessions</td><td style="vertical-align:top;">:</td><td><div>set([&#x27;start&#x27;])</div></td></tr><tr><td style="font-weight:bold;vertical-align:top;">debugging</td><td style="vertical-align:top;">:</td><td><div>False</div></td></tr><tr><td style="font-weight:bold;vertical-align:top;">gluon_parent</td><td style="vertical-align:top;">:</td><td><div>/Users/alissawoo/Desktop/spring2018/cmps183/web2py</div></td></tr><tr><td style="font-weight:bold;vertical-align:top;">http_accept</td><td style="vertical-align:top;">:</td><td><div>text/html,application/xhtml+xml,application/xml;q=0.9,image/webp,image/apng,*/*;q=0.8</div></td></tr><tr><td style="font-weight:bold;vertical-align:top;">http_accept_encoding</td><td style="vertical-align:top;">:</td><td><div>gzip, deflate, br</div></td></tr><tr><td style="font-weight:bold;vertical-align:top;">http_accept_language</td><td style="vertical-align:top;">:</td><td><div>en-US,en;q=0.9</div></td></tr><tr><td style="font-weight:bold;vertical-align:top;">http_cache_control</td><td style="vertical-align:top;">:</td><td><div>max-age=0</div></td></tr><tr><td style="font-weight:bold;vertical-align:top;">http_connection</td><td style="vertical-align:top;">:</td><td><div>keep-alive</div></td></tr><tr><td style="font-weight:bold;vertical-align:top;">http_cookie</td><td style="vertical-align:top;">:</td><td><div>session_id_admin=127.0.0.1-a3f1309e-19ff-4e55-8437-d7aee1d2831f; session_id_start=&quot;23:342defde-482e-4a05-8378-b1ac20408c58&quot;; session_id_ravebay=127.0.0.1-315e4555-ebd2-4377-afa7-6dac381cf9aa; session_id_welcome=127.0.0.1-1947729d-beae-4290-b9ee-26a2ad99ad40; session_id_ravexchange=127.0.0.1-bfc6b5f7-f2ef-45e5-901c-45d3e24ea551</div></td></tr><tr><td style="font-weight:bold;vertical-align:top;">http_host</td><td style="vertical-align:top;">:</td><td><div>127.0.0.1:8000</div></td></tr><tr><td style="font-weight:bold;vertical-align:top;">http_referer</td><td style="vertical-align:top;">:</td><td><div>http://127.0.0.1:8000/ravexchange/default/sell</div></td></tr><tr><td style="font-weight:bold;vertical-align:top;">http_upgrade_insecure_requests</td><td style="vertical-align:top;">:</td><td><div>1</div></td></tr><tr><td style="font-weight:bold;vertical-align:top;">http_user_agent</td><td style="vertical-align:top;">:</td><td><div>Mozilla/5.0 (Macintosh; Intel Mac OS X 10_12_6) AppleWebKit/537.36 (KHTML, like Gecko) Chrome/66.0.3359.181 Safari/537.36</div></td></tr><tr><td style="font-weight:bold;vertical-align:top;">is_jython</td><td style="vertical-align:top;">:</td><td><div>False</div></td></tr><tr><td style="font-weight:bold;vertical-align:top;">is_py2</td><td style="vertical-align:top;">:</td><td><div>True</div></td></tr><tr><td style="font-weight:bold;vertical-align:top;">is_pypy</td><td style="vertical-align:top;">:</td><td><div>False</div></td></tr><tr><td style="font-weight:bold;vertical-align:top;">is_source</td><td style="vertical-align:top;">:</td><td><div>True</div></td></tr><tr><td style="font-weight:bold;vertical-align:top;">local_hosts</td><td style="vertical-align:top;">:</td><td><div><table><tr><td><div>::1</div></td></tr><tr><td><div>eduroam-169-233-201-131.ucsc.edu</div></td></tr><tr><td><div>::ffff:127.0.0.1</div></td></tr><tr><td><div>127.0.0.1</div></td></tr><tr><td><div>169.233.201.131</div></td></tr></table></div></td></tr><tr><td style="font-weight:bold;vertical-align:top;">path_info</td><td style="vertical-align:top;">:</td><td><div>/ravexchange/default/buy</div></td></tr><tr><td style="font-weight:bold;vertical-align:top;">query_string</td><td style="vertical-align:top;">:</td><td><div></div></td></tr><tr><td style="font-weight:bold;vertical-align:top;">remote_addr</td><td style="vertical-align:top;">:</td><td><div>127.0.0.1</div></td></tr><tr><td style="font-weight:bold;vertical-align:top;">remote_port</td><td style="vertical-align:top;">:</td><td><div>58449</div></td></tr><tr><td style="font-weight:bold;vertical-align:top;">request_method</td><td style="vertical-align:top;">:</td><td><div>GET</div></td></tr><tr><td style="font-weight:bold;vertical-align:top;">request_uri</td><td style="vertical-align:top;">:</td><td><div>/ravexchange/default/buy</div></td></tr><tr><td style="font-weight:bold;vertical-align:top;">script_name</td><td style="vertical-align:top;">:</td><td><div></div></td></tr><tr><td style="font-weight:bold;vertical-align:top;">server_name</td><td style="vertical-align:top;">:</td><td><div>eduroam-169-233-201-131.ucsc.edu</div></td></tr><tr><td style="font-weight:bold;vertical-align:top;">server_port</td><td style="vertical-align:top;">:</td><td><div>8000</div></td></tr><tr><td style="font-weight:bold;vertical-align:top;">server_protocol</td><td style="vertical-align:top;">:</td><td><div>HTTP/1.1</div></td></tr><tr><td style="font-weight:bold;vertical-align:top;">server_software</td><td style="vertical-align:top;">:</td><td><div>Rocket 1.2.6</div></td></tr><tr><td style="font-weight:bold;vertical-align:top;">web2py_path</td><td style="vertical-align:top;">:</td><td><div>/Users/alissawoo/Desktop/spring2018/cmps183/web2py</div></td></tr><tr><td style="font-weight:bold;vertical-align:top;">web2py_version</td><td style="vertical-align:top;">:</td><td><div>2.16.1-stable+timestamp.2017.11.14.05.54.25</div></td></tr><tr><td style="font-weight:bold;vertical-align:top;">wsgi.errors</td><td style="vertical-align:top;">:</td><td><div>&lt;open file &#x27;&lt;stderr&gt;&#x27;, mode &#x27;w&#x27; at 0x1094221e0&gt;</div></td></tr><tr><td style="font-weight:bold;vertical-align:top;">wsgi.file_wrapper</td><td style="vertical-align:top;">:</td><td><div>&lt;class wsgiref.util.FileWrapper at 0x10ac5cce8&gt;</div></td></tr><tr><td style="font-weight:bold;vertical-align:top;">wsgi.input</td><td style="vertical-align:top;">:</td><td><div>&lt;socket._fileobject object at 0x112753250&gt;</div></td></tr><tr><td style="font-weight:bold;vertical-align:top;">wsgi.multiprocess</td><td style="vertical-align:top;">:</td><td><div>False</div></td></tr><tr><td style="font-weight:bold;vertical-align:top;">wsgi.multithread</td><td style="vertical-align:top;">:</td><td><div>True</div></td></tr><tr><td style="font-weight:bold;vertical-align:top;">wsgi.run_once</td><td style="vertical-align:top;">:</td><td><div>False</div></td></tr><tr><td style="font-weight:bold;vertical-align:top;">wsgi.url_scheme</td><td style="vertical-align:top;">:</td><td><div>http</div></td></tr><tr><td style="font-weight:bold;vertical-align:top;">wsgi.version</td><td style="vertical-align:top;">:</td><td><div><table><tr><td><div>1</div></td></tr><tr><td><div>0</div></td></tr></table></div></td></tr><tr><td style="font-weight:bold;vertical-align:top;">wsgi_errors</td><td style="vertical-align:top;">:</td><td><div>&lt;open file &#x27;&lt;stderr&gt;&#x27;, mode &#x27;w&#x27; at 0x1094221e0&gt;</div></td></tr><tr><td style="font-weight:bold;vertical-align:top;">wsgi_file_wrapper</td><td style="vertical-align:top;">:</td><td><div>&lt;class wsgiref.util.FileWrapper at 0x10ac5cce8&gt;</div></td></tr><tr><td style="font-weight:bold;vertical-align:top;">wsgi_input</td><td style="vertical-align:top;">:</td><td><div>&lt;socket._fileobject object at 0x112753250&gt;</div></td></tr><tr><td style="font-weight:bold;vertical-align:top;">wsgi_multiprocess</td><td style="vertical-align:top;">:</td><td><div>False</div></td></tr><tr><td style="font-weight:bold;vertical-align:top;">wsgi_multithread</td><td style="vertical-align:top;">:</td><td><div>True</div></td></tr><tr><td style="font-weight:bold;vertical-align:top;">wsgi_run_once</td><td style="vertical-align:top;">:</td><td><div>False</div></td></tr><tr><td style="font-weight:bold;vertical-align:top;">wsgi_url_scheme</td><td style="vertical-align:top;">:</td><td><div>http</div></td></tr><tr><td style="font-weight:bold;vertical-align:top;">wsgi_version</td><td style="vertical-align:top;">:</td><td><div><table><tr><td><div>1</div></td></tr><tr><td><div>0</div></td></tr></table></div></td></tr></table></div></td></tr><tr><td style="font-weight:bold;vertical-align:top;">extension</td><td style="vertical-align:top;">:</td><td><div>html</div></td></tr><tr><td style="font-weight:bold;vertical-align:top;">folder</td><td style="vertical-align:top;">:</td><td><div>/Users/alissawoo/Desktop/spring2018/cmps183/web2py/applications/ravexchange/</div></td></tr><tr><td style="font-weight:bold;vertical-align:top;">function</td><td style="vertical-align:top;">:</td><td><div>buy</div></td></tr><tr><td style="font-weight:bold;vertical-align:top;">global_settings</td><td style="vertical-align:top;">:</td><td><div><table><tr><td style="font-weight:bold;vertical-align:top;">app_folders</td><td style="vertical-align:top;">:</td><td><div>set([&#x27;/Users/alissawoo/Desktop/spring2018/cmps183/web2py/applications/ravExchange/&#x27;, &#x27;/Users/alissawoo/Desktop/spring2018/cmps183/web2py/applications/admin/&#x27;, &#x27;/Users/alissawoo/Desktop/spring2018/cmps183/web2py/applications/raveBay/&#x27;, &#x27;/Users/alissawoo/Desktop/spring2018/cmps183/web2py/applications/start/&#x27;, &#x27;/Users/alissawoo/Desktop/spring2018/cmps183/web2py/applications/ravexchange/&#x27;, &#x27;/Users/alissawoo/Desktop/spring2018/cmps183/web2py/applications/welcome/&#x27;])</div></td></tr><tr><td style="font-weight:bold;vertical-align:top;">applications_parent</td><td style="vertical-align:top;">:</td><td><div>/Users/alissawoo/Desktop/spring2018/cmps183/web2py</div></td></tr><tr><td style="font-weight:bold;vertical-align:top;">cmd_args</td><td style="vertical-align:top;">:</td><td><div><table></table></div></td></tr><tr><td style="font-weight:bold;vertical-align:top;">cmd_options</td><td style="vertical-align:top;">:</td><td><div>&lt;Values at 0x10acb0758: {&#x27;verbose&#x27;: False, &#x27;ip&#x27;: &#x27;127.0.0.1&#x27;, &#x27;debuglevel&#x27;: 30, &#x27;with_scheduler&#x27;: False, &#x27;shutdown_timeout&#x27;: 5, &#x27;taskbar&#x27;: False, &#x27;with_coverage&#x27;: False, &#x27;pid_filename&#x27;: &#x27;httpserver.pid&#x27;, &#x27;maxthreads&#x27;: None, &#x27;softcron&#x27;: False, &#x27;server_name&#x27;: &#x27;eduroam-169-233-201-131.ucsc.edu&#x27;, &#x27;bpython&#x27;: False, &#x27;nogui&#x27;: False, &#x27;port&#x27;: 8000, &#x27;print_errors&#x27;: True, &#x27;extcron&#x27;: False, &#x27;runcron&#x27;: False, &#x27;run_system_tests&#x27;: False, &#x27;test&#x27;: None, &#x27;folder&#x27;: &#x27;/Users/alissawoo/Desktop/spring2018/cmps183/web2py&#x27;, &#x27;config&#x27;: &#x27;&#x27;, &#x27;minthreads&#x27;: None, &#x27;shell&#x27;: None, &#x27;run&#x27;: &#x27;&#x27;, &#x27;log_filename&#x27;: &#x27;httpserver.log&#x27;, &#x27;profiler_dir&#x27;: None, &#x27;args&#x27;: [&#x27;&#x27;], &#x27;socket_timeout&#x27;: 5, &#x27;ssl_ca_certificate&#x27;: None, &#x27;scheduler&#x27;: None, &#x27;interfaces&#x27;: None, &#x27;ssl_private_key&#x27;: &#x27;&#x27;, &#x27;gae&#x27;: None, &#x27;password&#x27;: &#x27;******&#x27;, &#x27;request_queue_size&#x27;: 5, &#x27;ssl_certificate&#x27;: &#x27;&#x27;, &#x27;cronjob&#x27;: False, &#x27;numthreads&#x27;: None, &#x27;quiet&#x27;: False, &#x27;import_models&#x27;: False, &#x27;timeout&#x27;: 10, &#x27;plain&#x27;: False, &#x27;nobanner&#x27;: False}&gt;</div></td></tr><tr><td style="font-weight:bold;vertical-align:top;">db_sessions</td><td style="vertical-align:top;">:</td><td><div>set([&#x27;start&#x27;])</div></td></tr><tr><td style="font-weight:bold;vertical-align:top;">debugging</td><td style="vertical-align:top;">:</td><td><div>False</div></td></tr><tr><td style="font-weight:bold;vertical-align:top;">gluon_parent</td><td style="vertical-align:top;">:</td><td><div>/Users/alissawoo/Desktop/spring2018/cmps183/web2py</div></td></tr><tr><td style="font-weight:bold;vertical-align:top;">is_jython</td><td style="vertical-align:top;">:</td><td><div>False</div></td></tr><tr><td style="font-weight:bold;vertical-align:top;">is_py2</td><td style="vertical-align:top;">:</td><td><div>True</div></td></tr><tr><td style="font-weight:bold;vertical-align:top;">is_pypy</td><td style="vertical-align:top;">:</td><td><div>False</div></td></tr><tr><td style="font-weight:bold;vertical-align:top;">is_source</td><td style="vertical-align:top;">:</td><td><div>True</div></td></tr><tr><td style="font-weight:bold;vertical-align:top;">local_hosts</td><td style="vertical-align:top;">:</td><td><div><table><tr><td><div>::1</div></td></tr><tr><td><div>eduroam-169-233-201-131.ucsc.edu</div></td></tr><tr><td><div>::ffff:127.0.0.1</div></td></tr><tr><td><div>127.0.0.1</div></td></tr><tr><td><div>169.233.201.131</div></td></tr></table></div></td></tr><tr><td style="font-weight:bold;vertical-align:top;">web2py_version</td><td style="vertical-align:top;">:</td><td><div>2.16.1-stable+timestamp.2017.11.14.05.54.25</div></td></tr></table></div></td></tr><tr><td style="font-weight:bold;vertical-align:top;">is_https</td><td style="vertical-align:top;">:</td><td><div>False</div></td></tr><tr><td style="font-weight:bold;vertical-align:top;">is_local</td><td style="vertical-align:top;">:</td><td><div>True</div></td></tr><tr><td style="font-weight:bold;vertical-align:top;">is_restful</td><td style="vertical-align:top;">:</td><td><div>False</div></td></tr><tr><td style="font-weight:bold;vertical-align:top;">is_scheduler</td><td style="vertical-align:top;">:</td><td><div>False</div></td></tr><tr><td style="font-weight:bold;vertical-align:top;">is_shell</td><td style="vertical-align:top;">:</td><td><div>False</div></td></tr><tr><td style="font-weight:bold;vertical-align:top;">now</td><td style="vertical-align:top;">:</td><td><div>datetime.datetime(2018, 5, 17, 14, 12, 20, 567631)</div></td></tr><tr><td style="font-weight:bold;vertical-align:top;">raw_args</td><td style="vertical-align:top;">:</td><td><div></div></td></tr><tr><td style="font-weight:bold;vertical-align:top;">raw_extension</td><td style="vertical-align:top;">:</td><td><div>None</div></td></tr><tr><td style="font-weight:bold;vertical-align:top;">url</td><td style="vertical-align:top;">:</td><td><div>/ravexchange/default/buy</div></td></tr><tr><td style="font-weight:bold;vertical-align:top;">utcnow</td><td style="vertical-align:top;">:</td><td><div>datetime.datetime(2018, 5, 17, 21, 12, 20, 567639)</div></td></tr><tr><td style="font-weight:bold;vertical-align:top;">wsgi</td><td style="vertical-align:top;">:</td><td><div>&lt;gluon.main.LazyWSGI object at 0x10fbdc390&gt;</div></td></tr></table></div>'
tRp60
sS'frames'
p61
(lp62
(dp63
S'file'
p64
S'/Users/alissawoo/Desktop/spring2018/cmps183/web2py/gluon/restricted.py'
p65
sS'dump'
p66
(dp67
S'environment'
p68
S"{'A': <class 'gluon.html.A'>, 'ANY_OF': <class 'gluon.validators.ANY_OF'>, 'ASSIGNJS': <function ASSIGNJS>, 'AppConfig': <function AppConfig>, 'Auth': <class 'gluon.tools.Auth'>, 'B': <class 'gluon.html.B'>, 'BEAUTIFY': <class 'gluon.html.BEAUTIFY'>, 'BODY': <class 'gluon.html.BODY'>, 'BR': <class 'gluon.html.BR'>, 'BUTTON': <class 'gluon.html.BUTTON'>, ...}"
p69
sS'ccode'
p70
S'<code object <module> at 0x111f0b7b0, file "/Use...ions/ravexchange/views/default/buy.html", line 1>'
p71
ssS'lnum'
p72
I219
sS'lines'
p73
(dp74
I214
S'    if environment is None:'
p75
sI215
S'        environment = {}'
p76
sI216
S"    environment['__file__'] = layer"
p77
sI217
S"    environment['__name__'] = '__restricted__'"
p78
sI218
S'    try:'
p79
sI219
S'        exec(ccode, environment)'
p80
sI220
S'    except HTTP:'
p81
sI221
S'        raise'
p82
sI222
S'    except RestrictedError:'
p83
sI223
S'        # do not encapsulate (obfuscate) the original RestrictedError'
p84
ssS'call'
p85
S'(ccode=<code object <module> at 0x111f0b7b0, file "/Use...ions/ravexchange/views/default/buy.html", line 1>, environment={\'A\': <class \'gluon.html.A\'>, \'ANY_OF\': <class \'gluon.validators.ANY_OF\'>, \'ASSIGNJS\': <function ASSIGNJS>, \'AppConfig\': <function AppConfig>, \'Auth\': <class \'gluon.tools.Auth\'>, \'B\': <class \'gluon.html.B\'>, \'BEAUTIFY\': <class \'gluon.html.BEAUTIFY\'>, \'BODY\': <class \'gluon.html.BODY\'>, \'BR\': <class \'gluon.html.BR\'>, \'BUTTON\': <class \'gluon.html.BUTTON\'>, ...}, layer=\'/Users/alissawoo/Desktop/spring2018/cmps183/web2py/applications/ravexchange/views/default/buy.html\', scode=\'response.write(\\\'<!DOCTYPE html>\\\\n<!--[if (gt IE ..."></script>\\\\n  </body>\\\\n</html>\\\\n\\\', escape=False)\')'
p86
sS'func'
p87
S'restricted'
p88
sa(dp89
g64
S'/Users/alissawoo/Desktop/spring2018/cmps183/web2py/applications/ravexchange/views/default/buy.html'
p90
sg66
(dp91
sg72
I114
sg73
(dp92
I105
S"        response.write('</a>\\n              ', escape=False)"
p93
sI106
S'        pass'
p94
sI107
S"    response.write('\\n            </div>\\n          </li>\\n        </ul>        \\n        ', escape=False)"
p95
sI108
S'    pass'
p96
sI109
S"response.write('\\n      </div>\\n    </nav>\\n\\n    <!-- Masthead ===================================== -->    \\n    ', escape=False)"
p97
sI110
S"response.write('\\n    ', escape=False)"
p98
sI111
S'response.write(\'\\n    <!-- Main ========================================= -->\\n    <!-- Begin page content -->\\n    <div class="container-fluid main-container">\\n      <div class="col-md-12">\\n        \', escape=False)'
p99
sI112
S"response.write('\\n        ', escape=False)"
p100
sI113
S"response.write('\\n', escape=False)"
p101
sI114
S'response.write(records)'
p102
sI115
S"response.write('\\n        ', escape=False)"
p103
sI116
S"response.write('\\n        ', escape=False)"
p104
sI117
S"response.write(response.toolbar() if configuration.get('app.toolbar') else '')"
p105
sI118
S"response.write('\\n      </div>\\n    </div>\\n\\n    ', escape=False)"
p106
sI119
S'response.write(\' <!-- this is default footer -->      \\n    <footer class="footer">\\n      <div class="container-fluid">\\n        <div class="copyright pull-left">\', escape=False)'
p107
sI120
S"response.write(T('Copyright'))"
p108
sI121
S"response.write(' &#169; ', escape=False)"
p109
sI122
S'response.write(request.now.year)'
p110
sI123
S'response.write(\'</div>\\n          <div id="poweredBy" class="pull-right">\\n            \', escape=False)'
p111
sI124
S"response.write(T('Powered by'))"
p112
ssg85
S'()'
p113
sg87
S'<module>'
p114
sasS'pyver'
p115
S'Python 2.7.14: /Users/alissawoo/anaconda2/envs/python27/bin/python (prefix: /Users/alissawoo/anaconda2/envs/python27)'
p116
sS'session'
p117
g59
(S's\x9c\x00\x00\x00<div><table><tr><td style="font-weight:bold;vertical-align:top;">flash</td><td style="vertical-align:top;">:</td><td><div>None</div></td></tr></table></div>'
tRp118
sS'etype'
p119
S"<type 'exceptions.NameError'>"
p120
sS'date'
p121
S'Thu May 17 14:12:20 2018'
p122
sS'response'
p123
g59
(S's\xa1 \x00\x00<div><table><tr><td style="font-weight:bold;vertical-align:top;">body</td><td style="vertical-align:top;">:</td><td><div>&lt;cStringIO.StringO object at 0x11284d1b8&gt;</div></td></tr><tr><td style="font-weight:bold;vertical-align:top;">cookies</td><td style="vertical-align:top;">:</td><td><div><table><tr><td style="font-weight:bold;vertical-align:top;">session_id_ravexchange</td><td style="vertical-align:top;">:</td><td><div>127.0.0.1-bfc6b5f7-f2ef-45e5-901c-45d3e24ea551<table><tr><td style="font-weight:bold;vertical-align:top;">comment</td><td style="vertical-align:top;">:</td><td><div></div></td></tr><tr><td style="font-weight:bold;vertical-align:top;">domain</td><td style="vertical-align:top;">:</td><td><div></div></td></tr><tr><td style="font-weight:bold;vertical-align:top;">expires</td><td style="vertical-align:top;">:</td><td><div></div></td></tr><tr><td style="font-weight:bold;vertical-align:top;">httponly</td><td style="vertical-align:top;">:</td><td><div></div></td></tr><tr><td style="font-weight:bold;vertical-align:top;">max-age</td><td style="vertical-align:top;">:</td><td><div></div></td></tr><tr><td style="font-weight:bold;vertical-align:top;">path</td><td style="vertical-align:top;">:</td><td><div>/</div></td></tr><tr><td style="font-weight:bold;vertical-align:top;">secure</td><td style="vertical-align:top;">:</td><td><div></div></td></tr><tr><td style="font-weight:bold;vertical-align:top;">version</td><td style="vertical-align:top;">:</td><td><div></div></td></tr></table></div></td></tr></table></div></td></tr><tr><td style="font-weight:bold;vertical-align:top;">delimiters</td><td style="vertical-align:top;">:</td><td><div><table><tr><td><div>{{</div></td></tr><tr><td><div>}}</div></td></tr></table></div></td></tr><tr><td style="font-weight:bold;vertical-align:top;">files</td><td style="vertical-align:top;">:</td><td><div><table><tr><td><div>/ravexchange/static/js/jquery.js</div></td></tr><tr><td><div>/ravexchange/static/css/calendar.css</div></td></tr><tr><td><div>/ravexchange/static/js/calendar.js</div></td></tr><tr><td><div>/ravexchange/static/js/web2py.js</div></td></tr></table></div></td></tr><tr><td style="font-weight:bold;vertical-align:top;">flash</td><td style="vertical-align:top;">:</td><td><div>form accepted</div></td></tr><tr><td style="font-weight:bold;vertical-align:top;">form_label_separator</td><td style="vertical-align:top;">:</td><td><div></div></td></tr><tr><td style="font-weight:bold;vertical-align:top;">formstyle</td><td style="vertical-align:top;">:</td><td><div>bootstrap4_inline</div></td></tr><tr><td style="font-weight:bold;vertical-align:top;">generic_patterns</td><td style="vertical-align:top;">:</td><td><div><table><tr><td><div>*</div></td></tr></table></div></td></tr><tr><td style="font-weight:bold;vertical-align:top;">google_analytics_id</td><td style="vertical-align:top;">:</td><td><div>None</div></td></tr><tr><td style="font-weight:bold;vertical-align:top;">headers</td><td style="vertical-align:top;">:</td><td><div><table><tr><td style="font-weight:bold;vertical-align:top;">X-Powered-By</td><td style="vertical-align:top;">:</td><td><div>web2py</div></td></tr></table></div></td></tr><tr><td style="font-weight:bold;vertical-align:top;">logo</td><td style="vertical-align:top;">:</td><td><div><a href="/ravexchange/default/index"><img alt="My Logo" src="https://i.imgur.com/A2LRvVK.png" style="margin:20px 10px" /></a></div></td></tr><tr><td style="font-weight:bold;vertical-align:top;">menu</td><td style="vertical-align:top;">:</td><td><div><table><tr><td><div><table><tr><td><div>Home</div></td></tr><tr><td><div>False</div></td></tr><tr><td><div>/ravexchange/default/</div></td></tr></table></div></td></tr><tr><td><div><table><tr><td><div>Events</div></td></tr><tr><td><div>False</div></td></tr><tr><td><div>/ravexchange/default/events</div></td></tr></table></div></td></tr><tr><td><div><table><tr><td><div>Buy</div></td></tr><tr><td><div>False</div></td></tr><tr><td><div>/ravexchange/default/buy</div></td></tr></table></div></td></tr><tr><td><div><table><tr><td><div>Sell</div></td></tr><tr><td><div>False</div></td></tr><tr><td><div>/ravexchange/default/sell</div></td></tr></table></div></td></tr></table></div></td></tr><tr><td style="font-weight:bold;vertical-align:top;">meta</td><td style="vertical-align:top;">:</td><td><div><table><tr><td style="font-weight:bold;vertical-align:top;">author</td><td style="vertical-align:top;">:</td><td><div>Your Name &lt;you@example.com&gt;</div></td></tr><tr><td style="font-weight:bold;vertical-align:top;">description</td><td style="vertical-align:top;">:</td><td><div>a cool new app</div></td></tr><tr><td style="font-weight:bold;vertical-align:top;">generator</td><td style="vertical-align:top;">:</td><td><div>Web2py Web Framework</div></td></tr><tr><td style="font-weight:bold;vertical-align:top;">keywords</td><td style="vertical-align:top;">:</td><td><div><table><tr><td><div>web2py</div></td></tr><tr><td><div>python</div></td></tr><tr><td><div>framework</div></td></tr></table></div></td></tr></table></div></td></tr><tr><td style="font-weight:bold;vertical-align:top;">models_to_run</td><td style="vertical-align:top;">:</td><td><div><table><tr><td><div>^\\w+\\.py$</div></td></tr><tr><td><div>^default/\\w+\\.py$</div></td></tr><tr><td><div>^default/buy/\\w+\\.py$</div></td></tr></table></div></td></tr><tr><td style="font-weight:bold;vertical-align:top;">postprocessing</td><td style="vertical-align:top;">:</td><td><div><table></table></div></td></tr><tr><td style="font-weight:bold;vertical-align:top;">session_client</td><td style="vertical-align:top;">:</td><td><div>127.0.0.1</div></td></tr><tr><td style="font-weight:bold;vertical-align:top;">session_cookie_compression_level</td><td style="vertical-align:top;">:</td><td><div>None</div></td></tr><tr><td style="font-weight:bold;vertical-align:top;">session_cookie_expires</td><td style="vertical-align:top;">:</td><td><div>None</div></td></tr><tr><td style="font-weight:bold;vertical-align:top;">session_data_name</td><td style="vertical-align:top;">:</td><td><div>session_data_ravexchange</div></td></tr><tr><td style="font-weight:bold;vertical-align:top;">session_file</td><td style="vertical-align:top;">:</td><td><div>&lt;open file &#x27;/Users/alissawoo/Desktop/spring2018/cmps183/web2py/applications/ravexchange/sessions/1e3/01e/127.0.0.1-bfc6b5f7-f2ef-45e5-901c-45d3e24ea551&#x27;, mode &#x27;rb+&#x27; at 0x11207cf60&gt;</div></td></tr><tr><td style="font-weight:bold;vertical-align:top;">session_filename</td><td style="vertical-align:top;">:</td><td><div>/Users/alissawoo/Desktop/spring2018/cmps183/web2py/applications/ravexchange/sessions/127.0.0.1-bfc6b5f7-f2ef-45e5-901c-45d3e24ea551</div></td></tr><tr><td style="font-weight:bold;vertical-align:top;">session_hash</td><td style="vertical-align:top;">:</td><td><div>b9d7d99f733b68c6c4267b03515dc5f2</div></td></tr><tr><td style="font-weight:bold;vertical-align:top;">session_id</td><td style="vertical-align:top;">:</td><td><div>127.0.0.1-bfc6b5f7-f2ef-45e5-901c-45d3e24ea551</div></td></tr><tr><td style="font-weight:bold;vertical-align:top;">session_id_name</td><td style="vertical-align:top;">:</td><td><div>session_id_ravexchange</div></td></tr><tr><td style="font-weight:bold;vertical-align:top;">session_locked</td><td style="vertical-align:top;">:</td><td><div>True</div></td></tr><tr><td style="font-weight:bold;vertical-align:top;">session_masterapp</td><td style="vertical-align:top;">:</td><td><div>ravexchange</div></td></tr><tr><td style="font-weight:bold;vertical-align:top;">session_new</td><td style="vertical-align:top;">:</td><td><div>False</div></td></tr><tr><td style="font-weight:bold;vertical-align:top;">session_storage_type</td><td style="vertical-align:top;">:</td><td><div>file</div></td></tr><tr><td style="font-weight:bold;vertical-align:top;">status</td><td style="vertical-align:top;">:</td><td><div>200</div></td></tr><tr><td style="font-weight:bold;vertical-align:top;">subtitle</td><td style="vertical-align:top;">:</td><td><div></div></td></tr><tr><td style="font-weight:bold;vertical-align:top;">title</td><td style="vertical-align:top;">:</td><td><div>Ravexchange</div></td></tr><tr><td style="font-weight:bold;vertical-align:top;">view</td><td style="vertical-align:top;">:</td><td><div>default/buy.html</div></td></tr></table></div>'
tRp124
sS'locals'
p125
(dp126
S'PY2'
p127
S'True'
p128
sS'OBJECT'
p129
S"<class 'gluon.html.OBJECT'>"
p130
sS'SQLDB'
p131
S"<class 'pydal.base.DAL'>"
p132
sg117
S"<Storage {'flash': None, '_formkey[default]': ['...01dca', 'ed30967d-8487-457d-bab9-f7e0c02553ce']}>"
p133
sS'LINK'
p134
S"<class 'gluon.html.LINK'>"
p135
sS'BR'
p136
S"<class 'gluon.html.BR'>"
p137
sS'local_import'
p138
S'<function <lambda>>'
p139
sS'OPTGROUP'
p140
S"<class 'gluon.html.OPTGROUP'>"
p141
sS'__package__'
p142
S'None'
p143
sS'PRE'
p144
S"<class 'gluon.html.PRE'>"
p145
sS'IS_INT_IN_RANGE'
p146
S"<class 'gluon.validators.IS_INT_IN_RANGE'>"
p147
sS'to_bytes'
p148
S'<function to_bytes>'
p149
sS'IS_LOWER'
p150
S"<class 'gluon.validators.IS_LOWER'>"
p151
sS'IS_STRONG'
p152
S"<class 'gluon.validators.IS_STRONG'>"
p153
sS'cache'
p154
S'<gluon.cache.Cache object>'
p155
sS'IS_IN_DB'
p156
S"<class 'gluon.validators.IS_IN_DB'>"
p157
sS'TAG'
p158
S'<gluon.html.__TAG__ object>'
p159
sS'SQLField'
p160
S"<class 'pydal.objects.Field'>"
p161
sS'mail'
p162
S'<gluon.tools.Mail object>'
p163
sS'BODY'
p164
S"<class 'gluon.html.BODY'>"
p165
sS'IS_DATE_IN_RANGE'
p166
S"<class 'gluon.validators.IS_DATE_IN_RANGE'>"
p167
sS'IFRAME'
p168
S"<class 'gluon.html.IFRAME'>"
p169
sS'URL'
p170
S'<function URL>'
p171
sS'__file__'
p172
S"'/Users/alissawoo/Desktop/spring2018/cmps183/web2py/applications/ravexchange/views/default/buy.html'"
p173
sS'db'
p174
S'<DAL uri="sqlite://storage.sqlite">'
p175
sS'auth'
p176
S'<gluon.tools.Auth object>'
p177
sS'P'
S"<class 'gluon.html.P'>"
p178
sS'TFOOT'
p179
S"<class 'gluon.html.TFOOT'>"
p180
sS'iteritems'
p181
S'<function <lambda>>'
p182
sS'XHTML'
p183
S"<class 'gluon.html.XHTML'>"
p184
sS'datetime'
p185
S"<module 'datetime' from '/Users/alissawoo/anacon.../python27/lib/python2.7/lib-dynload/datetime.so'>"
p186
sS'ON'
p187
g128
sS'OL'
p188
S"<class 'gluon.html.OL'>"
p189
sS'TEXTAREA'
p190
S"<class 'gluon.html.TEXTAREA'>"
p191
sS'MENU'
p192
S"<class 'gluon.html.MENU'>"
p193
sS'IS_IMAGE'
p194
S"<class 'gluon.validators.IS_IMAGE'>"
p195
sS'EM'
p196
S"<class 'gluon.html.EM'>"
p197
sS'CODE'
p198
S"<class 'gluon.html.CODE'>"
p199
sS'HTTP'
p200
S"<class 'gluon.http.HTTP'>"
p201
sS'HR'
p202
S"<class 'gluon.html.HR'>"
p203
sS'IS_DATETIME'
p204
S"<class 'gluon.validators.IS_DATETIME'>"
p205
sS'reduce'
p206
S'<built-in function reduce>'
p207
sS'STYLE'
p208
S"<class 'gluon.html.STYLE'>"
p209
sS'LABEL'
p210
S"<class 'gluon.html.LABEL'>"
p211
sS'CLEANUP'
p212
S"<class 'gluon.validators.CLEANUP'>"
p213
sS'SELECT'
p214
S"<class 'gluon.html.SELECT'>"
p215
sS'CENTER'
p216
S"<class 'gluon.html.CENTER'>"
p217
sS'Auth'
p218
S"<class 'gluon.tools.Auth'>"
p219
sS'DEVELOPMENT_MENU'
p220
g128
sS'__builtins__'
p221
S"{'ArithmeticError': <type 'exceptions.ArithmeticError'>, 'AssertionError': <type 'exceptions.AssertionError'>, 'AttributeError': <type 'exceptions.AttributeError'>, 'BaseException': <type 'exceptions.BaseException'>, 'BufferError': <type 'exceptions.BufferError'>, 'BytesWarning': <type 'exceptions.BytesWarning'>, 'DeprecationWarning': <type 'exceptions.DeprecationWarning'>, 'EOFError': <type 'exceptions.EOFError'>, 'Ellipsis': Ellipsis, 'EnvironmentError': <type 'exceptions.EnvironmentError'>, ...}"
p222
sS'HTML'
p223
S"<class 'gluon.html.HTML'>"
p224
sS'SQLFORM'
p225
S"<class 'gluon.sqlhtml.SQLFORM'>"
p226
sS'_item'
p227
S"(<lazyT 'Sell'>, False, '/ravexchange/default/sell')"
p228
sS'LOAD'
p229
S'<function LOAD>'
p230
sS'redirect'
p231
S'<function redirect>'
p232
sS'FIELDSET'
p233
S"<class 'gluon.html.FIELDSET'>"
p234
sS'IS_EQUAL_TO'
p235
S"<class 'gluon.validators.IS_EQUAL_TO'>"
p236
sS'embed64'
p237
S'<function embed64>'
p238
sS'IS_LIST_OF'
p239
S"<class 'gluon.validators.IS_LIST_OF'>"
p240
sS'INPUT'
p241
S"<class 'gluon.html.INPUT'>"
p242
sS'EMBED'
p243
S"<class 'gluon.html.EMBED'>"
p244
sS'configuration'
p245
S"{'host': {'names': 'localhost:*, 127.0.0.1:*, *:...': 'sqlite://storage.sqlite', 'pool_size': '10'}}"
p246
sS'_'
S'<function _>'
p247
sS'H2'
p248
S"<class 'gluon.html.H2'>"
p249
sS'H3'
p250
S"<class 'gluon.html.H3'>"
p251
sS'AppConfig'
p252
S'<function AppConfig>'
p253
sS'H1'
p254
S"<class 'gluon.html.H1'>"
p255
sS'H6'
p256
S"<class 'gluon.html.H6'>"
p257
sS'H4'
p258
S"<class 'gluon.html.H4'>"
p259
sS'H5'
p260
S"<class 'gluon.html.H5'>"
p261
sS'UL'
p262
S"<class 'gluon.html.UL'>"
p263
sS'IS_UPPER'
p264
S"<class 'gluon.validators.IS_UPPER'>"
p265
sS'xmlescape'
p266
S'<function xmlescape>'
p267
sS'IS_TIME'
p268
S"<class 'gluon.validators.IS_TIME'>"
p269
sS'OPTION'
p270
S"<class 'gluon.html.OPTION'>"
p271
sS'TITLE'
p272
S"<class 'gluon.html.TITLE'>"
p273
sS'CRYPT'
p274
S"<class 'gluon.validators.CRYPT'>"
p275
sS'IS_EMPTY_OR'
p276
S"<class 'gluon.validators.IS_EMPTY_OR'>"
p277
sS'MARKMIN'
p278
S"<class 'gluon.html.MARKMIN'>"
p279
sS'__name__'
p280
S"'__restricted__'"
p281
sS'STRONG'
p282
S"<class 'gluon.html.STRONG'>"
p283
sS'COL'
p284
S"<class 'gluon.html.COL'>"
p285
sS'SCRIPT'
p286
S"<class 'gluon.html.SCRIPT'>"
p287
sS'TABLE'
p288
S"<class 'gluon.html.TABLE'>"
p289
sS'IS_IPV4'
p290
S"<class 'gluon.validators.IS_IPV4'>"
p291
sS'IS_LENGTH'
p292
S"<class 'gluon.validators.IS_LENGTH'>"
p293
sS'IS_IPV6'
p294
S"<class 'gluon.validators.IS_IPV6'>"
p295
sS'XML'
p296
S"<class 'gluon.html.XML'>"
p297
sS'B'
S"<class 'gluon.html.B'>"
p298
sS'IMG'
p299
S"<class 'gluon.html.IMG'>"
p300
sS'SQLTABLE'
p301
S"<class 'gluon.sqlhtml.SQLTABLE'>"
p302
sS'IS_MATCH'
p303
S"<class 'gluon.validators.IS_MATCH'>"
p304
sS'IS_ALPHANUMERIC'
p305
S"<class 'gluon.validators.IS_ALPHANUMERIC'>"
p306
sS'get_user_email'
p307
S'<function get_user_email>'
p308
sS'SPAN'
p309
S"<class 'gluon.html.SPAN'>"
p310
sS'IS_JSON'
p311
S"<class 'gluon.validators.IS_JSON'>"
p312
sS'IS_IPADDRESS'
p313
S"<class 'gluon.validators.IS_IPADDRESS'>"
p314
sS'IS_SLUG'
p315
S"<class 'gluon.validators.IS_SLUG'>"
p316
sS'BEAUTIFY'
p317
S"<class 'gluon.html.BEAUTIFY'>"
p318
sS'META'
p319
S"<class 'gluon.html.META'>"
p320
sS'BUTTON'
p321
S"<class 'gluon.html.BUTTON'>"
p322
sS'IS_DATE'
p323
S"<class 'gluon.validators.IS_DATE'>"
p324
sS'IS_EMAIL'
p325
S"<class 'gluon.validators.IS_EMAIL'>"
p326
sS'IS_NOT_EMPTY'
p327
S"<class 'gluon.validators.IS_NOT_EMPTY'>"
p328
sS'xrange'
p329
S"<type 'xrange'>"
p330
sS'TBODY'
p331
S"<class 'gluon.html.TBODY'>"
p332
sS'CAT'
p333
S"<class 'gluon.html.CAT'>"
p334
sS'Field'
p335
S"<class 'pydal.objects.Field'>"
p336
sS'IS_LIST_OF_EMAILS'
p337
S"<class 'gluon.validators.IS_LIST_OF_EMAILS'>"
p338
sg58
S"<Storage {'_vars': None, 'function': 'buy', 'coo...g2018/cmps183/web2py/applications/ravexchange/'}>"
p339
sS'DIV'
p340
S"<class 'gluon.html.DIV'>"
p341
sS'LEGEND'
p342
S"<class 'gluon.html.LEGEND'>"
p343
sS'to_native'
p344
S'<function to_native>'
p345
sS'COLGROUP'
p346
S"<class 'gluon.html.COLGROUP'>"
p347
sS'DAL'
p348
S"<class 'pydal.base.DAL'>"
p349
sS'ASSIGNJS'
p350
S'<function ASSIGNJS>'
p351
sS'TR'
p352
S"<class 'gluon.html.TR'>"
p353
sS'LI'
p354
S"<class 'gluon.html.LI'>"
p355
sS'TH'
p356
S"<class 'gluon.html.TH'>"
p357
sS'TD'
p358
S"<class 'gluon.html.TD'>"
p359
sS'IS_URL'
p360
S"<class 'gluon.validators.IS_URL'>"
p361
sS'A'
S"<class 'gluon.html.A'>"
p362
sS'HEAD'
p363
S"<class 'gluon.html.HEAD'>"
p364
sS'IS_DATETIME_IN_RANGE'
p365
S"<class 'gluon.validators.IS_DATETIME_IN_RANGE'>"
p366
sS'FORM'
p367
S"<class 'gluon.html.FORM'>"
p368
sS'I'
S"<class 'gluon.html.I'>"
p369
sS'IS_NOT_IN_DB'
p370
S"<class 'gluon.validators.IS_NOT_IN_DB'>"
p371
sg123
S"<Storage {'body': <cStringIO.StringO object at 0...da> at 0x11283b140>, 'view': 'default/buy.html'}>"
p372
sS'THEAD'
p373
S"<class 'gluon.html.THEAD'>"
p374
sS'ANY_OF'
p375
S"<class 'gluon.validators.ANY_OF'>"
p376
sS'IS_NULL_OR'
p377
S"<class 'gluon.validators.IS_EMPTY_OR'>"
p378
sS'IS_FLOAT_IN_RANGE'
p379
S"<class 'gluon.validators.IS_FLOAT_IN_RANGE'>"
p380
sS'IS_EXPR'
p381
S"<class 'gluon.validators.IS_EXPR'>"
p382
sS'T'
S'<gluon.languages.translator object>'
p383
sS'IS_IN_SET'
p384
S"<class 'gluon.validators.IS_IN_SET'>"
p385
sS'IS_UPLOAD_FILENAME'
p386
S"<class 'gluon.validators.IS_UPLOAD_FILENAME'>"
p387
sS'TT'
p388
S"<class 'gluon.html.TT'>"
p389
sS'IS_DECIMAL_IN_RANGE'
p390
S"<class 'gluon.validators.IS_DECIMAL_IN_RANGE'>"
p391
sssS'traceback'
p392
S'Traceback (most recent call last):\n  File "/Users/alissawoo/Desktop/spring2018/cmps183/web2py/gluon/restricted.py", line 219, in restricted\n    exec(ccode, environment)\n  File "/Users/alissawoo/Desktop/spring2018/cmps183/web2py/applications/ravexchange/views/default/buy.html", line 114, in <module>\nNameError: name \'records\' is not defined\n'
p393
s.